target datalayout = "e-m:e-p270:32:32-p271:32:32-p272:64:64-i64:64-i128:128-f80:128-n8:16:32:64-S128"
target triple = "x86_64-pc-linux-gnu"

%struct.SN_env = type { ptr, i32, i32, i32, i32, i32, ptr, ptr }

@s_98 = internal constant [8 x i8] c"\CE\BA\CE\BF\CE\BB\CE\BB", align 1
@s_99 = internal constant [4 x i8] c"\CE\B1\CE\B3", align 1
@s_100 = internal constant [4 x i8] c"\CE\B1\CE\B3", align 1
@s_101 = internal constant [4 x i8] c"\CE\B1\CE\B3", align 1

; Function Attrs: nounwind uwtable
define internal i32 @r_step5i(ptr noundef %0) #0 {
  %2 = alloca i32, align 4
  %3 = alloca ptr, align 8
  %4 = alloca i32, align 4
  %5 = alloca i32, align 4
  %6 = alloca i32, align 4
  %7 = alloca i32, align 4
  %8 = alloca i32, align 4
  %9 = alloca i32, align 4
  %10 = alloca i32, align 4
  %11 = alloca i32, align 4
  store ptr %0, ptr %3, align 8
  call void @llvm.lifetime.start.p0(i64 4, ptr %4) #3
  %12 = load ptr, ptr %3, align 8
  %13 = getelementptr inbounds nuw %struct.SN_env, ptr %12, i32 0, i32 1
  %14 = load i32, ptr %13, align 8
  %15 = load ptr, ptr %3, align 8
  %16 = getelementptr inbounds nuw %struct.SN_env, ptr %15, i32 0, i32 5
  store i32 %14, ptr %16, align 8
  %17 = load ptr, ptr %3, align 8
  %18 = call i32 @find_among_b(ptr noundef %17, ptr noundef @a_56, i32 noundef 3)
  %19 = icmp ne i32 %18, 0
  br i1 %19, label %21, label %20

20:                                               ; preds = %1
  store i32 0, ptr %2, align 4
  store i32 1, ptr %5, align 4
  br label %167

21:                                               ; preds = %1
  %22 = load ptr, ptr %3, align 8
  %23 = getelementptr inbounds nuw %struct.SN_env, ptr %22, i32 0, i32 1
  %24 = load i32, ptr %23, align 8
  %25 = load ptr, ptr %3, align 8
  %26 = getelementptr inbounds nuw %struct.SN_env, ptr %25, i32 0, i32 4
  store i32 %24, ptr %26, align 4
  call void @llvm.lifetime.start.p0(i64 4, ptr %6) #3
  %27 = load ptr, ptr %3, align 8
  %28 = call i32 @slice_del(ptr noundef %27)
  store i32 %28, ptr %6, align 4
  %29 = load i32, ptr %6, align 4
  %30 = icmp slt i32 %29, 0
  br i1 %30, label %31, label %33

31:                                               ; preds = %21
  %32 = load i32, ptr %6, align 4
  store i32 %32, ptr %2, align 4
  store i32 1, ptr %5, align 4
  br label %34

33:                                               ; preds = %21
  store i32 0, ptr %5, align 4
  br label %34

34:                                               ; preds = %33, %31
  call void @llvm.lifetime.end.p0(i64 4, ptr %6) #3
  %35 = load i32, ptr %5, align 4
  switch i32 %35, label %167 [
    i32 0, label %36
  ]

36:                                               ; preds = %34
  %37 = load ptr, ptr %3, align 8
  %38 = getelementptr inbounds nuw %struct.SN_env, ptr %37, i32 0, i32 7
  %39 = load ptr, ptr %38, align 8
  %40 = getelementptr inbounds i32, ptr %39, i64 0
  store i32 0, ptr %40, align 4
  call void @llvm.lifetime.start.p0(i64 4, ptr %7) #3
  %41 = load ptr, ptr %3, align 8
  %42 = getelementptr inbounds nuw %struct.SN_env, ptr %41, i32 0, i32 2
  %43 = load i32, ptr %42, align 4
  %44 = load ptr, ptr %3, align 8
  %45 = getelementptr inbounds nuw %struct.SN_env, ptr %44, i32 0, i32 1
  %46 = load i32, ptr %45, align 8
  %47 = sub i32 %43, %46
  store i32 %47, ptr %7, align 4
  %48 = load ptr, ptr %3, align 8
  %49 = getelementptr inbounds nuw %struct.SN_env, ptr %48, i32 0, i32 1
  %50 = load i32, ptr %49, align 8
  %51 = load ptr, ptr %3, align 8
  %52 = getelementptr inbounds nuw %struct.SN_env, ptr %51, i32 0, i32 5
  store i32 %50, ptr %52, align 8
  %53 = load ptr, ptr %3, align 8
  %54 = getelementptr inbounds nuw %struct.SN_env, ptr %53, i32 0, i32 1
  %55 = load i32, ptr %54, align 8
  %56 = load ptr, ptr %3, align 8
  %57 = getelementptr inbounds nuw %struct.SN_env, ptr %56, i32 0, i32 4
  store i32 %55, ptr %57, align 4
  %58 = load ptr, ptr %3, align 8
  %59 = call i32 @eq_s_b(ptr noundef %58, i32 noundef 8, ptr noundef @s_98)
  %60 = icmp ne i32 %59, 0
  br i1 %60, label %62, label %61

61:                                               ; preds = %36
  br label %73

62:                                               ; preds = %36
  call void @llvm.lifetime.start.p0(i64 4, ptr %8) #3
  %63 = load ptr, ptr %3, align 8
  %64 = call i32 @slice_from_s(ptr noundef %63, i32 noundef 4, ptr noundef @s_99)
  store i32 %64, ptr %8, align 4
  %65 = load i32, ptr %8, align 4
  %66 = icmp slt i32 %65, 0
  br i1 %66, label %67, label %69

67:                                               ; preds = %62
  %68 = load i32, ptr %8, align 4
  store i32 %68, ptr %2, align 4
  store i32 1, ptr %5, align 4
  br label %70

69:                                               ; preds = %62
  store i32 0, ptr %5, align 4
  br label %70

70:                                               ; preds = %69, %67
  call void @llvm.lifetime.end.p0(i64 4, ptr %8) #3
  %71 = load i32, ptr %5, align 4
  switch i32 %71, label %163 [
    i32 0, label %72
  ]

72:                                               ; preds = %70
  store i32 3, ptr %5, align 4
  br label %163

73:                                               ; preds = %61
  %74 = load ptr, ptr %3, align 8
  %75 = getelementptr inbounds nuw %struct.SN_env, ptr %74, i32 0, i32 2
  %76 = load i32, ptr %75, align 4
  %77 = load i32, ptr %7, align 4
  %78 = sub i32 %76, %77
  %79 = load ptr, ptr %3, align 8
  %80 = getelementptr inbounds nuw %struct.SN_env, ptr %79, i32 0, i32 1
  store i32 %78, ptr %80, align 8
  call void @llvm.lifetime.start.p0(i64 4, ptr %9) #3
  %81 = load ptr, ptr %3, align 8
  %82 = getelementptr inbounds nuw %struct.SN_env, ptr %81, i32 0, i32 2
  %83 = load i32, ptr %82, align 4
  %84 = load ptr, ptr %3, align 8
  %85 = getelementptr inbounds nuw %struct.SN_env, ptr %84, i32 0, i32 1
  %86 = load i32, ptr %85, align 8
  %87 = sub i32 %83, %86
  store i32 %87, ptr %9, align 4
  %88 = load ptr, ptr %3, align 8
  %89 = getelementptr inbounds nuw %struct.SN_env, ptr %88, i32 0, i32 1
  %90 = load i32, ptr %89, align 8
  %91 = load ptr, ptr %3, align 8
  %92 = getelementptr inbounds nuw %struct.SN_env, ptr %91, i32 0, i32 5
  store i32 %90, ptr %92, align 8
  %93 = load ptr, ptr %3, align 8
  %94 = getelementptr inbounds nuw %struct.SN_env, ptr %93, i32 0, i32 1
  %95 = load i32, ptr %94, align 8
  %96 = load ptr, ptr %3, align 8
  %97 = getelementptr inbounds nuw %struct.SN_env, ptr %96, i32 0, i32 4
  store i32 %95, ptr %97, align 4
  %98 = load ptr, ptr %3, align 8
  %99 = call i32 @find_among_b(ptr noundef %98, ptr noundef @a_54, i32 noundef 12)
  store i32 %99, ptr %4, align 4
  %100 = load i32, ptr %4, align 4
  %101 = icmp ne i32 %100, 0
  br i1 %101, label %103, label %102

102:                                              ; preds = %73
  br label %117

103:                                              ; preds = %73
  %104 = load i32, ptr %4, align 4
  switch i32 %104, label %116 [
    i32 1, label %105
  ]

105:                                              ; preds = %103
  call void @llvm.lifetime.start.p0(i64 4, ptr %10) #3
  %106 = load ptr, ptr %3, align 8
  %107 = call i32 @slice_from_s(ptr noundef %106, i32 noundef 4, ptr noundef @s_100)
  store i32 %107, ptr %10, align 4
  %108 = load i32, ptr %10, align 4
  %109 = icmp slt i32 %108, 0
  br i1 %109, label %110, label %112

110:                                              ; preds = %105
  %111 = load i32, ptr %10, align 4
  store i32 %111, ptr %2, align 4
  store i32 1, ptr %5, align 4
  br label %113

112:                                              ; preds = %105
  store i32 0, ptr %5, align 4
  br label %113

113:                                              ; preds = %112, %110
  call void @llvm.lifetime.end.p0(i64 4, ptr %10) #3
  %114 = load i32, ptr %5, align 4
  switch i32 %114, label %159 [
    i32 0, label %115
  ]

115:                                              ; preds = %113
  br label %116

116:                                              ; preds = %103, %115
  store i32 6, ptr %5, align 4
  br label %159

117:                                              ; preds = %102
  %118 = load ptr, ptr %3, align 8
  %119 = getelementptr inbounds nuw %struct.SN_env, ptr %118, i32 0, i32 2
  %120 = load i32, ptr %119, align 4
  %121 = load i32, ptr %9, align 4
  %122 = sub i32 %120, %121
  %123 = load ptr, ptr %3, align 8
  %124 = getelementptr inbounds nuw %struct.SN_env, ptr %123, i32 0, i32 1
  store i32 %122, ptr %124, align 8
  %125 = load ptr, ptr %3, align 8
  %126 = getelementptr inbounds nuw %struct.SN_env, ptr %125, i32 0, i32 1
  %127 = load i32, ptr %126, align 8
  %128 = load ptr, ptr %3, align 8
  %129 = getelementptr inbounds nuw %struct.SN_env, ptr %128, i32 0, i32 5
  store i32 %127, ptr %129, align 8
  %130 = load ptr, ptr %3, align 8
  %131 = getelementptr inbounds nuw %struct.SN_env, ptr %130, i32 0, i32 1
  %132 = load i32, ptr %131, align 8
  %133 = load ptr, ptr %3, align 8
  %134 = getelementptr inbounds nuw %struct.SN_env, ptr %133, i32 0, i32 4
  store i32 %132, ptr %134, align 4
  %135 = load ptr, ptr %3, align 8
  %136 = call i32 @find_among_b(ptr noundef %135, ptr noundef @a_55, i32 noundef 44)
  %137 = icmp ne i32 %136, 0
  br i1 %137, label %139, label %138

138:                                              ; preds = %117
  store i32 0, ptr %2, align 4
  store i32 1, ptr %5, align 4
  br label %159

139:                                              ; preds = %117
  %140 = load ptr, ptr %3, align 8
  %141 = getelementptr inbounds nuw %struct.SN_env, ptr %140, i32 0, i32 1
  %142 = load i32, ptr %141, align 8
  %143 = load ptr, ptr %3, align 8
  %144 = getelementptr inbounds nuw %struct.SN_env, ptr %143, i32 0, i32 3
  %145 = load i32, ptr %144, align 8
  %146 = icmp sgt i32 %142, %145
  br i1 %146, label %147, label %148

147:                                              ; preds = %139
  store i32 0, ptr %2, align 4
  store i32 1, ptr %5, align 4
  br label %159

148:                                              ; preds = %139
  call void @llvm.lifetime.start.p0(i64 4, ptr %11) #3
  %149 = load ptr, ptr %3, align 8
  %150 = call i32 @slice_from_s(ptr noundef %149, i32 noundef 4, ptr noundef @s_101)
  store i32 %150, ptr %11, align 4
  %151 = load i32, ptr %11, align 4
  %152 = icmp slt i32 %151, 0
  br i1 %152, label %153, label %155

153:                                              ; preds = %148
  %154 = load i32, ptr %11, align 4
  store i32 %154, ptr %2, align 4
  store i32 1, ptr %5, align 4
  br label %156

155:                                              ; preds = %148
  store i32 0, ptr %5, align 4
  br label %156

156:                                              ; preds = %155, %153
  call void @llvm.lifetime.end.p0(i64 4, ptr %11) #3
  %157 = load i32, ptr %5, align 4
  switch i32 %157, label %159 [
    i32 0, label %158
  ]

158:                                              ; preds = %156
  store i32 0, ptr %5, align 4
  br label %159

159:                                              ; preds = %116, %158, %156, %147, %138, %113
  call void @llvm.lifetime.end.p0(i64 4, ptr %9) #3
  %160 = load i32, ptr %5, align 4
  switch i32 %160, label %163 [
    i32 0, label %161
    i32 6, label %162
  ]

161:                                              ; preds = %159
  br label %162

162:                                              ; preds = %161, %159
  store i32 0, ptr %5, align 4
  br label %163

163:                                              ; preds = %72, %162, %159, %70
  call void @llvm.lifetime.end.p0(i64 4, ptr %7) #3
  %164 = load i32, ptr %5, align 4
  switch i32 %164, label %167 [
    i32 0, label %165
    i32 3, label %166
  ]

165:                                              ; preds = %163
  br label %166

166:                                              ; preds = %165, %163
  store i32 1, ptr %2, align 4
  store i32 1, ptr %5, align 4
  br label %167

167:                                              ; preds = %166, %163, %34, %20
  call void @llvm.lifetime.end.p0(i64 4, ptr %4) #3
  %168 = load i32, ptr %2, align 4
  ret i32 %168
}