; Function Attrs: nounwind uwtable
define internal fastcc i32 @r_step5i(ptr noundef initializes((24, 28)) %0) unnamed_addr #0 {
  %2 = getelementptr inbounds nuw i8, ptr %0, i64 8
  %3 = load i32, ptr %2, align 8
  %4 = getelementptr inbounds nuw i8, ptr %0, i64 24
  store i32 %3, ptr %4, align 8
  %5 = tail call i32 @find_among_b(ptr noundef %0, ptr noundef nonnull @a_56, i32 noundef 3) #2
  %.not = icmp eq i32 %5, 0
  br i1 %.not, label %select.unfold75, label %6

6:                                                ; preds = %1
  %7 = load i32, ptr %2, align 8
  %8 = getelementptr inbounds nuw i8, ptr %0, i64 20
  store i32 %7, ptr %8, align 4
  %9 = tail call i32 @slice_del(ptr noundef nonnull %0) #2
  %10 = icmp sgt i32 %9, -1
  br i1 %10, label %11, label %select.unfold75

11:                                               ; preds = %6
  %12 = getelementptr inbounds nuw i8, ptr %0, i64 40
  %13 = load ptr, ptr %12, align 8
  store i32 0, ptr %13, align 4
  %14 = getelementptr inbounds nuw i8, ptr %0, i64 12
  %15 = load i32, ptr %14, align 4
  %16 = load i32, ptr %2, align 8
  store i32 %16, ptr %4, align 8
  store i32 %16, ptr %8, align 4
  %17 = tail call i32 @eq_s_b(ptr noundef nonnull %0, i32 noundef 8, ptr noundef nonnull @s_98) #2
  %.not68 = icmp eq i32 %17, 0
  br i1 %.not68, label %21, label %18

18:                                               ; preds = %11
  %19 = tail call i32 @slice_from_s(ptr noundef nonnull %0, i32 noundef 4, ptr noundef nonnull @s_99) #2
  %20 = icmp sgt i32 %19, -1
  %spec.select = select i1 %20, i32 1, i32 %19
  br label %select.unfold75

21:                                               ; preds = %11
  %.neg = sub i32 %16, %15
  %22 = load i32, ptr %14, align 4
  %23 = add i32 %22, %.neg
  store i32 %23, ptr %2, align 8
  store i32 %23, ptr %4, align 8
  store i32 %23, ptr %8, align 4
  %24 = tail call i32 @find_among_b(ptr noundef nonnull %0, ptr noundef nonnull @a_54, i32 noundef 12) #2
  switch i32 %24, label %select.unfold75 [
    i32 0, label %28
    i32 1, label %25
  ]

25:                                               ; preds = %21
  %26 = tail call i32 @slice_from_s(ptr noundef nonnull %0, i32 noundef 4, ptr noundef nonnull @s_100) #2
  %27 = icmp sgt i32 %26, -1
  br i1 %27, label %select.unfold75, label %.thread

28:                                               ; preds = %21
  %29 = load i32, ptr %14, align 4
  %30 = add i32 %29, %.neg
  store i32 %30, ptr %2, align 8
  store i32 %30, ptr %4, align 8
  store i32 %30, ptr %8, align 4
  %31 = tail call i32 @find_among_b(ptr noundef nonnull %0, ptr noundef nonnull @a_55, i32 noundef 44) #2
  %.not70 = icmp eq i32 %31, 0
  br i1 %.not70, label %.thread, label %32

32:                                               ; preds = %28
  %33 = load i32, ptr %2, align 8
  %34 = getelementptr inbounds nuw i8, ptr %0, i64 16
  %35 = load i32, ptr %34, align 8
  %36 = icmp sgt i32 %33, %35
  br i1 %36, label %.thread, label %37

37:                                               ; preds = %32
  %38 = tail call i32 @slice_from_s(ptr noundef nonnull %0, i32 noundef 4, ptr noundef nonnull @s_101) #2
  %39 = icmp slt i32 %38, 0
  br i1 %39, label %.thread, label %select.unfold75

.thread:                                          ; preds = %28, %32, %25, %37
  %.6.ph = phi i32 [ %26, %25 ], [ 0, %32 ], [ 0, %28 ], [ %38, %37 ]
  br label %select.unfold75

select.unfold75:                                  ; preds = %18, %25, %37, %21, %.thread, %1, %6
  %.0 = phi i32 [ %9, %6 ], [ 0, %1 ], [ %.6.ph, %.thread ], [ 1, %21 ], [ 1, %37 ], [ 1, %25 ], [ %spec.select, %18 ]
  ret i32 %.0
}